; Function Attrs: nounwind uwtable
define dso_local ptr @Curl_getn_scheme_handler(ptr noundef %0, i64 noundef %1) local_unnamed_addr #0 {
  %3 = add i64 %1, -1
  %or.cond = icmp ult i64 %3, 7
  br i1 %or.cond, label %.lr.ph, label %22

.lr.ph:                                           ; preds = %2, %.lr.ph
  %.02034 = phi i32 [ %8, %.lr.ph ], [ 978, %2 ]
  %.02233 = phi i64 [ %10, %.lr.ph ], [ %1, %2 ]
  %.02332 = phi ptr [ %9, %.lr.ph ], [ %0, %2 ]
  %4 = shl i32 %.02034, 5
  %5 = load i8, ptr %.02332, align 1, !tbaa !219
  %6 = tail call signext i8 @Curl_raw_tolower(i8 noundef signext %5) #12
  %7 = sext i8 %6 to i32
  %8 = add i32 %4, %7
  %9 = getelementptr inbounds nuw i8, ptr %.02332, i64 1
  %10 = add nsw i64 %.02233, -1
  %.not = icmp eq i64 %10, 0
  br i1 %.not, label %._crit_edge, label %.lr.ph, !llvm.loop !220

._crit_edge:                                      ; preds = %.lr.ph
  %11 = urem i32 %8, 67
  %12 = zext nneg i32 %11 to i64
  %13 = getelementptr inbounds nuw [67 x ptr], ptr @Curl_getn_scheme_handler.protocols, i64 0, i64 %12
  %14 = load ptr, ptr %13, align 8, !tbaa !221
  %.not26 = icmp eq ptr %14, null
  br i1 %.not26, label %.thread, label %15

15:                                               ; preds = %._crit_edge
  %16 = load ptr, ptr %14, align 8, !tbaa !222
  %17 = tail call i32 @curl_strnequal(ptr noundef %0, ptr noundef %16, i64 noundef %1) #12
  %.not27 = icmp eq i32 %17, 0
  br i1 %.not27, label %.thread, label %18

18:                                               ; preds = %15
  %19 = load ptr, ptr %14, align 8, !tbaa !222
  %20 = getelementptr inbounds nuw i8, ptr %19, i64 %1
  %21 = load i8, ptr %20, align 1, !tbaa !219
  %.not28 = icmp eq i8 %21, 0
  br i1 %.not28, label %22, label %.thread

.thread:                                          ; preds = %._crit_edge, %15, %18
  br label %22

22:                                               ; preds = %2, %.thread, %18
  %.1 = phi ptr [ %14, %18 ], [ null, %.thread ], [ null, %2 ]
  ret ptr %.1
}